(lp0
S'poi'
p1
aS'exercised_stock_options'
p2
aS'bonus'
p3
aS'salary'
p4
aS'perc_to_poi'
p5
aS'deferred_income'
p6
aS'long_term_incentive'
p7
aS'total_payments'
p8
aS'shared_receipt_with_poi'
p9
aS'expenses'
p10
aS'from_poi_to_this_person'
p11
aS'perc_from_poi'
p12
aS'from_this_person_to_poi'
p13
aS'from_messages'
p14
a.